target datalayout = "e-m:e-p270:32:32-p271:32:32-p272:64:64-i64:64-i128:128-f80:128-n8:16:32:64-S128"
target triple = "x86_64-pc-linux-gnu"

%struct.ident_t = type { i32, i32, i32, i32, ptr }
%struct.t_mdatoms = type { float, float, float, i32, i32, i8, i8, i8, i32, i32, i32, i32, i8, %"class.std::vector.2", %"class.std::vector.2", %"class.std::vector.2", %"class.gmx::PaddedVector.4", %"class.std::vector.9", %"class.gmx::ArrayRef", %"class.gmx::ArrayRef", %"class.std::vector.2", %"class.std::vector.2", %"class.std::vector.2", %"class.std::vector.2", %"class.std::vector.2", %"class.std::vector.2", %"class.std::vector.14", %"class.std::vector.19", %"class.std::vector.19", %"class.std::vector.24", %"class.std::vector.29", %"class.std::vector.29", %"class.std::vector.29", %"class.std::vector.29", %"class.std::vector.29", %"class.std::vector.29", %"class.std::vector.29", %"class.std::vector.29", i32, float }
%"class.gmx::PaddedVector.4" = type { %"class.std::vector.5", %"class.__gnu_cxx::__normal_iterator.8" }
%"class.std::vector.5" = type { %"struct.std::_Vector_base.6" }
%"struct.std::_Vector_base.6" = type { %"struct.std::_Vector_base<float, gmx::Allocator<float, gmx::AlignedAllocationPolicy>>::_Vector_impl" }
%"struct.std::_Vector_base<float, gmx::Allocator<float, gmx::AlignedAllocationPolicy>>::_Vector_impl" = type { %"struct.std::_Vector_base<float, gmx::Allocator<float, gmx::AlignedAllocationPolicy>>::_Vector_impl_data" }
%"struct.std::_Vector_base<float, gmx::Allocator<float, gmx::AlignedAllocationPolicy>>::_Vector_impl_data" = type { ptr, ptr, ptr }
%"class.__gnu_cxx::__normal_iterator.8" = type { ptr }
%"class.std::vector.9" = type { %"struct.std::_Vector_base.10" }
%"struct.std::_Vector_base.10" = type { %"struct.std::_Vector_base<gmx::BasicVector<float>, std::allocator<gmx::BasicVector<float>>>::_Vector_impl" }
%"struct.std::_Vector_base<gmx::BasicVector<float>, std::allocator<gmx::BasicVector<float>>>::_Vector_impl" = type { %"struct.std::_Vector_base<gmx::BasicVector<float>, std::allocator<gmx::BasicVector<float>>>::_Vector_impl_data" }
%"struct.std::_Vector_base<gmx::BasicVector<float>, std::allocator<gmx::BasicVector<float>>>::_Vector_impl_data" = type { ptr, ptr, ptr }
%"class.gmx::ArrayRef" = type { %"struct.gmx::ArrayRefIter", %"struct.gmx::ArrayRefIter" }
%"struct.gmx::ArrayRefIter" = type { ptr }
%"class.std::vector.2" = type { %"struct.std::_Vector_base.3" }
%"struct.std::_Vector_base.3" = type { %"struct.std::_Vector_base<float, std::allocator<float>>::_Vector_impl" }
%"struct.std::_Vector_base<float, std::allocator<float>>::_Vector_impl" = type { %"struct.std::_Vector_base<float, std::allocator<float>>::_Vector_impl_data" }
%"struct.std::_Vector_base<float, std::allocator<float>>::_Vector_impl_data" = type { ptr, ptr, ptr }
%"class.std::vector.14" = type { %"struct.std::_Vector_base.15" }
%"struct.std::_Vector_base.15" = type { %"struct.std::_Vector_base<gmx::BoolType, std::allocator<gmx::BoolType>>::_Vector_impl" }
%"struct.std::_Vector_base<gmx::BoolType, std::allocator<gmx::BoolType>>::_Vector_impl" = type { %"struct.std::_Vector_base<gmx::BoolType, std::allocator<gmx::BoolType>>::_Vector_impl_data" }
%"struct.std::_Vector_base<gmx::BoolType, std::allocator<gmx::BoolType>>::_Vector_impl_data" = type { ptr, ptr, ptr }
%"class.std::vector.19" = type { %"struct.std::_Vector_base.20" }
%"struct.std::_Vector_base.20" = type { %"struct.std::_Vector_base<int, std::allocator<int>>::_Vector_impl" }
%"struct.std::_Vector_base<int, std::allocator<int>>::_Vector_impl" = type { %"struct.std::_Vector_base<int, std::allocator<int>>::_Vector_impl_data" }
%"struct.std::_Vector_base<int, std::allocator<int>>::_Vector_impl_data" = type { ptr, ptr, ptr }
%"class.std::vector.24" = type { %"struct.std::_Vector_base.25" }
%"struct.std::_Vector_base.25" = type { %"struct.std::_Vector_base<ParticleType, std::allocator<ParticleType>>::_Vector_impl" }
%"struct.std::_Vector_base<ParticleType, std::allocator<ParticleType>>::_Vector_impl" = type { %"struct.std::_Vector_base<ParticleType, std::allocator<ParticleType>>::_Vector_impl_data" }
%"struct.std::_Vector_base<ParticleType, std::allocator<ParticleType>>::_Vector_impl_data" = type { ptr, ptr, ptr }
%"class.std::vector.29" = type { %"struct.std::_Vector_base.30" }
%"struct.std::_Vector_base.30" = type { %"struct.std::_Vector_base<unsigned short, std::allocator<unsigned short>>::_Vector_impl" }
%"struct.std::_Vector_base<unsigned short, std::allocator<unsigned short>>::_Vector_impl" = type { %"struct.std::_Vector_base<unsigned short, std::allocator<unsigned short>>::_Vector_impl_data" }
%"struct.std::_Vector_base<unsigned short, std::allocator<unsigned short>>::_Vector_impl_data" = type { ptr, ptr, ptr }

@2 = private unnamed_addr constant %struct.ident_t { i32 0, i32 2, i32 0, i32 22, ptr @0 }, align 8

; Function Attrs: mustprogress uwtable
define void @_Z14update_mdatomsP9t_mdatomsf(ptr noundef %0, float noundef %1) #0 {
  %3 = alloca ptr, align 8
  %4 = alloca float, align 4
  %5 = alloca float, align 4
  %6 = alloca i32, align 4
  %7 = call i32 @__kmpc_global_thread_num(ptr @2)
  store ptr %0, ptr %3, align 8, !tbaa !18
  store float %1, ptr %4, align 4, !tbaa !161
  %8 = load ptr, ptr %3, align 8, !tbaa !18
  %9 = getelementptr inbounds nuw %struct.t_mdatoms, ptr %8, i32 0, i32 9
  %10 = load i32, ptr %9, align 4, !tbaa !378
  %11 = icmp ne i32 %10, 0
  br i1 %11, label %12, label %35

12:                                               ; preds = %2
  %13 = load float, ptr %4, align 4, !tbaa !161
  %14 = load ptr, ptr %3, align 8, !tbaa !18
  %15 = getelementptr inbounds nuw %struct.t_mdatoms, ptr %14, i32 0, i32 39
  %16 = load float, ptr %15, align 4, !tbaa !474
  %17 = fcmp une float %13, %16
  br i1 %17, label %18, label %35

18:                                               ; preds = %12
  call void @llvm.lifetime.start.p0(i64 4, ptr %5) #14
  %19 = load float, ptr %4, align 4, !tbaa !161
  %20 = fsub float 1.000000e+00, %19
  store float %20, ptr %5, align 4, !tbaa !161
  call void @llvm.lifetime.start.p0(i64 4, ptr %6) #14
  %21 = call noundef i32 @_Z20gmx_omp_nthreads_get17ModuleMultiThread(i32 noundef 0)
  store i32 %21, ptr %6, align 4, !tbaa !156
  %22 = load i32, ptr %6, align 4, !tbaa !156
  call void @__kmpc_push_num_threads(ptr @2, i32 %7, i32 %22)
  call void (ptr, i32, ptr, ...) @__kmpc_fork_call(ptr @2, i32 3, ptr @_Z14update_mdatomsP9t_mdatomsf.omp_outlined, ptr %3, ptr %5, ptr %4)
  %23 = load float, ptr %5, align 4, !tbaa !161
  %24 = load ptr, ptr %3, align 8, !tbaa !18
  %25 = getelementptr inbounds nuw %struct.t_mdatoms, ptr %24, i32 0, i32 0
  %26 = load float, ptr %25, align 8, !tbaa !386
  %27 = load float, ptr %4, align 4, !tbaa !161
  %28 = load ptr, ptr %3, align 8, !tbaa !18
  %29 = getelementptr inbounds nuw %struct.t_mdatoms, ptr %28, i32 0, i32 1
  %30 = load float, ptr %29, align 4, !tbaa !387
  %31 = fmul float %27, %30
  %32 = call float @llvm.fmuladd.f32(float %23, float %26, float %31)
  %33 = load ptr, ptr %3, align 8, !tbaa !18
  %34 = getelementptr inbounds nuw %struct.t_mdatoms, ptr %33, i32 0, i32 2
  store float %32, ptr %34, align 8, !tbaa !473
  call void @llvm.lifetime.end.p0(i64 4, ptr %6) #14
  call void @llvm.lifetime.end.p0(i64 4, ptr %5) #14
  br label %35

35:                                               ; preds = %18, %12, %2
  %36 = load float, ptr %4, align 4, !tbaa !161
  %37 = load ptr, ptr %3, align 8, !tbaa !18
  %38 = getelementptr inbounds nuw %struct.t_mdatoms, ptr %37, i32 0, i32 39
  store float %36, ptr %38, align 4, !tbaa !474
  ret void
}