; Function Attrs: mustprogress uwtable
define void @_Z14update_mdatomsP9t_mdatomsf(ptr noundef %0, float noundef %1) local_unnamed_addr #0 {
  %3 = alloca ptr, align 8
  %4 = alloca float, align 4
  %5 = alloca float, align 4
  %6 = tail call i32 @__kmpc_global_thread_num(ptr nonnull @2)
  store ptr %0, ptr %3, align 8, !tbaa !10
  store float %1, ptr %4, align 4, !tbaa !38
  %7 = getelementptr inbounds nuw i8, ptr %0, i64 28
  %8 = load i32, ptr %7, align 4, !tbaa !246
  %.not = icmp eq i32 %8, 0
  br i1 %.not, label %25, label %9

9:                                                ; preds = %2
  %10 = getelementptr inbounds nuw i8, ptr %0, i64 644
  %11 = load float, ptr %10, align 4, !tbaa !283
  %12 = fcmp une float %1, %11
  br i1 %12, label %13, label %25

13:                                               ; preds = %9
  call void @llvm.lifetime.start.p0(i64 4, ptr nonnull %5) #16
  %14 = fsub float 1.000000e+00, %1
  store float %14, ptr %5, align 4, !tbaa !38
  %15 = tail call noundef i32 @_Z20gmx_omp_nthreads_get17ModuleMultiThread(i32 noundef 0)
  tail call void @__kmpc_push_num_threads(ptr nonnull @2, i32 %6, i32 %15)
  call void (ptr, i32, ptr, ...) @__kmpc_fork_call(ptr nonnull @2, i32 3, ptr nonnull @_Z14update_mdatomsP9t_mdatomsf.omp_outlined, ptr nonnull %3, ptr nonnull %5, ptr nonnull %4)
  %16 = load float, ptr %5, align 4, !tbaa !38
  %17 = load ptr, ptr %3, align 8, !tbaa !10
  %18 = load float, ptr %17, align 8, !tbaa !250
  %19 = load float, ptr %4, align 4, !tbaa !38
  %20 = getelementptr inbounds nuw i8, ptr %17, i64 4
  %21 = load float, ptr %20, align 4, !tbaa !251
  %22 = fmul float %19, %21
  %23 = call float @llvm.fmuladd.f32(float %16, float %18, float %22)
  %24 = getelementptr inbounds nuw i8, ptr %17, i64 8
  store float %23, ptr %24, align 8, !tbaa !282
  call void @llvm.lifetime.end.p0(i64 4, ptr nonnull %5) #16
  br label %25

25:                                               ; preds = %13, %9, %2
  %26 = phi ptr [ %17, %13 ], [ %0, %9 ], [ %0, %2 ]
  %27 = phi float [ %19, %13 ], [ %1, %9 ], [ %1, %2 ]
  %28 = getelementptr inbounds nuw i8, ptr %26, i64 644
  store float %27, ptr %28, align 4, !tbaa !283
  ret void
}